target datalayout = "e-m:e-p270:32:32-p271:32:32-p272:64:64-i64:64-i128:128-f80:128-n8:16:32:64-S128"
target triple = "x86_64-pc-linux-gnu"

%struct.JsonUniqueHashEntry = type { ptr, i32, i32 }

; Function Attrs: inlinehint nounwind uwtable
define internal i32 @DatumGetUInt32(i64 noundef %0) #2 {
  %2 = alloca i64, align 8
  store i64 %0, ptr %2, align 8
  %3 = load i64, ptr %2, align 8
  %4 = trunc i64 %3 to i32
  ret i32 %4
}

; Function Attrs: nounwind uwtable
define internal i32 @json_unique_hash(ptr noundef %0, i64 noundef %1) #0 {
  %3 = alloca ptr, align 8
  %4 = alloca i64, align 8
  %5 = alloca ptr, align 8
  %6 = alloca i32, align 4
  store ptr %0, ptr %3, align 8
  store i64 %1, ptr %4, align 8
  call void @llvm.lifetime.start.p0(i64 8, ptr %5) #14
  %7 = load ptr, ptr %3, align 8
  store ptr %7, ptr %5, align 8
  call void @llvm.lifetime.start.p0(i64 4, ptr %6) #14
  %8 = load ptr, ptr %5, align 8
  %9 = getelementptr inbounds nuw %struct.JsonUniqueHashEntry, ptr %8, i32 0, i32 2
  %10 = load i32, ptr %9, align 4
  %11 = call i32 @hash_bytes_uint32(i32 noundef %10)
  store i32 %11, ptr %6, align 4
  %12 = load ptr, ptr %5, align 8
  %13 = getelementptr inbounds nuw %struct.JsonUniqueHashEntry, ptr %12, i32 0, i32 0
  %14 = load ptr, ptr %13, align 8
  %15 = load ptr, ptr %5, align 8
  %16 = getelementptr inbounds nuw %struct.JsonUniqueHashEntry, ptr %15, i32 0, i32 1
  %17 = load i32, ptr %16, align 8
  %18 = call i32 @hash_bytes(ptr noundef %14, i32 noundef %17)
  %19 = load i32, ptr %6, align 4
  %20 = xor i32 %19, %18
  store i32 %20, ptr %6, align 4
  %21 = load i32, ptr %6, align 4
  %22 = zext i32 %21 to i64
  %23 = call i32 @DatumGetUInt32(i64 noundef %22)
  call void @llvm.lifetime.end.p0(i64 4, ptr %6) #14
  call void @llvm.lifetime.end.p0(i64 8, ptr %5) #14
  ret i32 %23
}