; Function Attrs: nounwind uwtable
define internal i32 @json_unique_hash(ptr noundef readonly captures(none) %0, i64 %1) #0 {
  %3 = getelementptr inbounds nuw i8, ptr %0, i64 12
  %4 = load i32, ptr %3, align 4
  %5 = tail call i32 @hash_bytes_uint32(i32 noundef %4) #10
  %6 = load ptr, ptr %0, align 8
  %7 = getelementptr inbounds nuw i8, ptr %0, i64 8
  %8 = load i32, ptr %7, align 8
  %9 = tail call i32 @hash_bytes(ptr noundef %6, i32 noundef %8) #10
  %10 = xor i32 %9, %5
  ret i32 %10
}